target datalayout = "e-m:e-p270:32:32-p271:32:32-p272:64:64-i64:64-i128:128-f80:128-n8:16:32:64-S128"
target triple = "x86_64-pc-linux-gnu"

%class.VM_HeapDumper = type { %class.VM_GC_Operation.base, [7 x i8], %class.WorkerTask.base, %class.UnmountedVThreadDumper, ptr, ptr, ptr, i8, ptr, ptr, i32, i32, i32, i32, i32, ptr, ptr }
%class.VM_GC_Operation.base = type <{ %class.VM_GC_Sync_Operation, i32, i32, i8, i8, [2 x i8], i32, i8 }>
%class.VM_GC_Sync_Operation = type { %class.VM_Operation }
%class.VM_Operation = type { ptr, ptr }
%class.WorkerTask.base = type <{ ptr, ptr, i32 }>
%class.UnmountedVThreadDumper = type { ptr }

@UseZGC = external global i8, align 1
@_ZN8Universe14_collectedHeapE = external global ptr, align 8

; Function Attrs: mustprogress nounwind uwtable
define linkonce_odr hidden noundef ptr @_ZN8Universe4heapEv() #1 comdat align 2 {
  %1 = load ptr, ptr @_ZN8Universe14_collectedHeapE, align 8
  ret ptr %1
}

; Function Attrs: mustprogress nounwind uwtable
define hidden noundef zeroext i1 @_ZN13VM_HeapDumper13doit_prologueEv(ptr noundef nonnull align 8 dereferenceable(160) %0) unnamed_addr #1 align 2 {
  %2 = alloca ptr, align 8
  store ptr %0, ptr %2, align 8
  %3 = load ptr, ptr %2, align 8
  %4 = getelementptr inbounds %class.VM_HeapDumper, ptr %3, i32 0, i32 7
  %5 = load i8, ptr %4, align 8
  %6 = trunc i8 %5 to i1
  br i1 %6, label %7, label %15

7:                                                ; preds = %1
  %8 = load i8, ptr @UseZGC, align 1
  %9 = trunc i8 %8 to i1
  br i1 %9, label %10, label %15

10:                                               ; preds = %7
  %11 = call noundef ptr @_ZN8Universe4heapEv()
  %12 = load ptr, ptr %11, align 8
  %13 = getelementptr inbounds ptr, ptr %12, i64 24
  %14 = load ptr, ptr %13, align 8
  call void %14(ptr noundef nonnull align 8 dereferenceable(104) %11, i32 noundef 7)
  br label %15

15:                                               ; preds = %10, %7, %1
  %16 = call noundef zeroext i1 @_ZN15VM_GC_Operation13doit_prologueEv(ptr noundef nonnull align 8 dereferenceable(33) %3)
  ret i1 %16
}